target datalayout = "e-m:e-p270:32:32-p271:32:32-p272:64:64-i64:64-i128:128-f80:128-n8:16:32:64-S128"
target triple = "x86_64-pc-linux-gnu"

%struct.uv__io_s = type { ptr, [2 x ptr], [2 x ptr], i32, i32, i32 }
%struct.uv_stream_s = type { ptr, ptr, i32, ptr, [2 x ptr], %union.anon, ptr, i32, i64, ptr, ptr, ptr, ptr, %struct.uv__io_s, [2 x ptr], [2 x ptr], ptr, i32, i32, ptr }
%union.anon = type { [4 x ptr] }
%struct.uv_buf_t = type { ptr, i64 }
%struct.uv_write_s = type { ptr, i32, [6 x ptr], ptr, ptr, ptr, [2 x ptr], i32, ptr, i32, i32, [4 x %struct.uv_buf_t] }

; Function Attrs: nounwind uwtable
define internal void @uv__stream_osx_interrupt_select(ptr noundef %0) #0 {
  %2 = alloca ptr, align 8
  store ptr %0, ptr %2, align 8
  ret void
}

; Function Attrs: nounwind uwtable
define internal void @uv__write_req_finish(ptr noundef %0) #0 {
  %2 = alloca ptr, align 8
  %3 = alloca ptr, align 8
  store ptr %0, ptr %2, align 8
  %4 = load ptr, ptr %2, align 8
  %5 = getelementptr inbounds %struct.uv_write_s, ptr %4, i32 0, i32 5
  %6 = load ptr, ptr %5, align 8
  store ptr %6, ptr %3, align 8
  br label %7

7:                                                ; preds = %1
  %8 = load ptr, ptr %2, align 8
  %9 = getelementptr inbounds %struct.uv_write_s, ptr %8, i32 0, i32 6
  %10 = getelementptr inbounds [2 x ptr], ptr %9, i64 0, i64 0
  %11 = load ptr, ptr %10, align 8
  %12 = load ptr, ptr %2, align 8
  %13 = getelementptr inbounds %struct.uv_write_s, ptr %12, i32 0, i32 6
  %14 = getelementptr inbounds [2 x ptr], ptr %13, i64 0, i64 1
  %15 = load ptr, ptr %14, align 8
  %16 = getelementptr inbounds [2 x ptr], ptr %15, i64 0, i64 0
  store ptr %11, ptr %16, align 8
  %17 = load ptr, ptr %2, align 8
  %18 = getelementptr inbounds %struct.uv_write_s, ptr %17, i32 0, i32 6
  %19 = getelementptr inbounds [2 x ptr], ptr %18, i64 0, i64 1
  %20 = load ptr, ptr %19, align 8
  %21 = load ptr, ptr %2, align 8
  %22 = getelementptr inbounds %struct.uv_write_s, ptr %21, i32 0, i32 6
  %23 = getelementptr inbounds [2 x ptr], ptr %22, i64 0, i64 0
  %24 = load ptr, ptr %23, align 8
  %25 = getelementptr inbounds [2 x ptr], ptr %24, i64 0, i64 1
  store ptr %20, ptr %25, align 8
  br label %26

26:                                               ; preds = %7
  %27 = load ptr, ptr %2, align 8
  %28 = getelementptr inbounds %struct.uv_write_s, ptr %27, i32 0, i32 10
  %29 = load i32, ptr %28, align 4
  %30 = icmp eq i32 %29, 0
  br i1 %30, label %31, label %46

31:                                               ; preds = %26
  %32 = load ptr, ptr %2, align 8
  %33 = getelementptr inbounds %struct.uv_write_s, ptr %32, i32 0, i32 8
  %34 = load ptr, ptr %33, align 8
  %35 = load ptr, ptr %2, align 8
  %36 = getelementptr inbounds %struct.uv_write_s, ptr %35, i32 0, i32 11
  %37 = getelementptr inbounds [4 x %struct.uv_buf_t], ptr %36, i64 0, i64 0
  %38 = icmp ne ptr %34, %37
  br i1 %38, label %39, label %43

39:                                               ; preds = %31
  %40 = load ptr, ptr %2, align 8
  %41 = getelementptr inbounds %struct.uv_write_s, ptr %40, i32 0, i32 8
  %42 = load ptr, ptr %41, align 8
  call void @uv__free(ptr noundef %42)
  br label %43

43:                                               ; preds = %39, %31
  %44 = load ptr, ptr %2, align 8
  %45 = getelementptr inbounds %struct.uv_write_s, ptr %44, i32 0, i32 8
  store ptr null, ptr %45, align 8
  br label %46

46:                                               ; preds = %43, %26
  br label %47

47:                                               ; preds = %46
  %48 = load ptr, ptr %3, align 8
  %49 = getelementptr inbounds %struct.uv_stream_s, ptr %48, i32 0, i32 15
  %50 = load ptr, ptr %2, align 8
  %51 = getelementptr inbounds %struct.uv_write_s, ptr %50, i32 0, i32 6
  %52 = getelementptr inbounds [2 x ptr], ptr %51, i64 0, i64 0
  store ptr %49, ptr %52, align 8
  %53 = load ptr, ptr %3, align 8
  %54 = getelementptr inbounds %struct.uv_stream_s, ptr %53, i32 0, i32 15
  %55 = getelementptr inbounds [2 x ptr], ptr %54, i64 0, i64 1
  %56 = load ptr, ptr %55, align 8
  %57 = load ptr, ptr %2, align 8
  %58 = getelementptr inbounds %struct.uv_write_s, ptr %57, i32 0, i32 6
  %59 = getelementptr inbounds [2 x ptr], ptr %58, i64 0, i64 1
  store ptr %56, ptr %59, align 8
  %60 = load ptr, ptr %2, align 8
  %61 = getelementptr inbounds %struct.uv_write_s, ptr %60, i32 0, i32 6
  %62 = load ptr, ptr %2, align 8
  %63 = getelementptr inbounds %struct.uv_write_s, ptr %62, i32 0, i32 6
  %64 = getelementptr inbounds [2 x ptr], ptr %63, i64 0, i64 1
  %65 = load ptr, ptr %64, align 8
  %66 = getelementptr inbounds [2 x ptr], ptr %65, i64 0, i64 0
  store ptr %61, ptr %66, align 8
  %67 = load ptr, ptr %2, align 8
  %68 = getelementptr inbounds %struct.uv_write_s, ptr %67, i32 0, i32 6
  %69 = load ptr, ptr %3, align 8
  %70 = getelementptr inbounds %struct.uv_stream_s, ptr %69, i32 0, i32 15
  %71 = getelementptr inbounds [2 x ptr], ptr %70, i64 0, i64 1
  store ptr %68, ptr %71, align 8
  br label %72

72:                                               ; preds = %47
  %73 = load ptr, ptr %3, align 8
  %74 = getelementptr inbounds %struct.uv_stream_s, ptr %73, i32 0, i32 1
  %75 = load ptr, ptr %74, align 8
  %76 = load ptr, ptr %3, align 8
  %77 = getelementptr inbounds %struct.uv_stream_s, ptr %76, i32 0, i32 13
  call void @uv__io_feed(ptr noundef %75, ptr noundef %77)
  ret void
}

; Function Attrs: nounwind uwtable
define internal i32 @uv__write_req_update(ptr noundef %0, ptr noundef %1, i64 noundef %2) #0 {
  %4 = alloca ptr, align 8
  %5 = alloca ptr, align 8
  %6 = alloca i64, align 8
  %7 = alloca ptr, align 8
  %8 = alloca i64, align 8
  store ptr %0, ptr %4, align 8
  store ptr %1, ptr %5, align 8
  store i64 %2, ptr %6, align 8
  %9 = load i64, ptr %6, align 8
  %10 = load ptr, ptr %4, align 8
  %11 = getelementptr inbounds %struct.uv_stream_s, ptr %10, i32 0, i32 8
  %12 = load i64, ptr %11, align 8
  %13 = sub i64 %12, %9
  store i64 %13, ptr %11, align 8
  %14 = load ptr, ptr %5, align 8
  %15 = getelementptr inbounds %struct.uv_write_s, ptr %14, i32 0, i32 8
  %16 = load ptr, ptr %15, align 8
  %17 = load ptr, ptr %5, align 8
  %18 = getelementptr inbounds %struct.uv_write_s, ptr %17, i32 0, i32 7
  %19 = load i32, ptr %18, align 8
  %20 = zext i32 %19 to i64
  %21 = getelementptr inbounds %struct.uv_buf_t, ptr %16, i64 %20
  store ptr %21, ptr %7, align 8
  br label %22

22:                                               ; preds = %57, %3
  %23 = load i64, ptr %6, align 8
  %24 = load ptr, ptr %7, align 8
  %25 = getelementptr inbounds %struct.uv_buf_t, ptr %24, i32 0, i32 1
  %26 = load i64, ptr %25, align 8
  %27 = icmp ult i64 %23, %26
  br i1 %27, label %28, label %30

28:                                               ; preds = %22
  %29 = load i64, ptr %6, align 8
  br label %34

30:                                               ; preds = %22
  %31 = load ptr, ptr %7, align 8
  %32 = getelementptr inbounds %struct.uv_buf_t, ptr %31, i32 0, i32 1
  %33 = load i64, ptr %32, align 8
  br label %34

34:                                               ; preds = %30, %28
  %35 = phi i64 [ %29, %28 ], [ %33, %30 ]
  store i64 %35, ptr %8, align 8
  %36 = load i64, ptr %8, align 8
  %37 = load ptr, ptr %7, align 8
  %38 = getelementptr inbounds %struct.uv_buf_t, ptr %37, i32 0, i32 0
  %39 = load ptr, ptr %38, align 8
  %40 = getelementptr inbounds i8, ptr %39, i64 %36
  store ptr %40, ptr %38, align 8
  %41 = load i64, ptr %8, align 8
  %42 = load ptr, ptr %7, align 8
  %43 = getelementptr inbounds %struct.uv_buf_t, ptr %42, i32 0, i32 1
  %44 = load i64, ptr %43, align 8
  %45 = sub i64 %44, %41
  store i64 %45, ptr %43, align 8
  %46 = load ptr, ptr %7, align 8
  %47 = getelementptr inbounds %struct.uv_buf_t, ptr %46, i32 0, i32 1
  %48 = load i64, ptr %47, align 8
  %49 = icmp eq i64 %48, 0
  %50 = zext i1 %49 to i32
  %51 = load ptr, ptr %7, align 8
  %52 = sext i32 %50 to i64
  %53 = getelementptr inbounds %struct.uv_buf_t, ptr %51, i64 %52
  store ptr %53, ptr %7, align 8
  %54 = load i64, ptr %8, align 8
  %55 = load i64, ptr %6, align 8
  %56 = sub i64 %55, %54
  store i64 %56, ptr %6, align 8
  br label %57

57:                                               ; preds = %34
  %58 = load i64, ptr %6, align 8
  %59 = icmp ugt i64 %58, 0
  br i1 %59, label %22, label %60, !llvm.loop !20

60:                                               ; preds = %57
  %61 = load ptr, ptr %7, align 8
  %62 = load ptr, ptr %5, align 8
  %63 = getelementptr inbounds %struct.uv_write_s, ptr %62, i32 0, i32 8
  %64 = load ptr, ptr %63, align 8
  %65 = ptrtoint ptr %61 to i64
  %66 = ptrtoint ptr %64 to i64
  %67 = sub i64 %65, %66
  %68 = sdiv exact i64 %67, 16
  %69 = trunc i64 %68 to i32
  %70 = load ptr, ptr %5, align 8
  %71 = getelementptr inbounds %struct.uv_write_s, ptr %70, i32 0, i32 7
  store i32 %69, ptr %71, align 8
  %72 = load ptr, ptr %5, align 8
  %73 = getelementptr inbounds %struct.uv_write_s, ptr %72, i32 0, i32 7
  %74 = load i32, ptr %73, align 8
  %75 = load ptr, ptr %5, align 8
  %76 = getelementptr inbounds %struct.uv_write_s, ptr %75, i32 0, i32 9
  %77 = load i32, ptr %76, align 8
  %78 = icmp eq i32 %74, %77
  %79 = zext i1 %78 to i32
  ret i32 %79
}

; Function Attrs: nounwind uwtable
define internal void @uv__write(ptr noundef %0) #0 {
  %2 = alloca ptr, align 8
  %3 = alloca ptr, align 8
  %4 = alloca ptr, align 8
  %5 = alloca i64, align 8
  store ptr %0, ptr %2, align 8
  br label %6

6:                                                ; preds = %67, %1
  %7 = load ptr, ptr %2, align 8
  %8 = getelementptr inbounds %struct.uv_stream_s, ptr %7, i32 0, i32 14
  %9 = load ptr, ptr %2, align 8
  %10 = getelementptr inbounds %struct.uv_stream_s, ptr %9, i32 0, i32 14
  %11 = getelementptr inbounds [2 x ptr], ptr %10, i64 0, i64 0
  %12 = load ptr, ptr %11, align 8
  %13 = icmp eq ptr %8, %12
  br i1 %13, label %14, label %15

14:                                               ; preds = %6
  br label %87

15:                                               ; preds = %6
  %16 = load ptr, ptr %2, align 8
  %17 = getelementptr inbounds %struct.uv_stream_s, ptr %16, i32 0, i32 14
  %18 = getelementptr inbounds [2 x ptr], ptr %17, i64 0, i64 0
  %19 = load ptr, ptr %18, align 8
  store ptr %19, ptr %3, align 8
  %20 = load ptr, ptr %3, align 8
  %21 = getelementptr inbounds i8, ptr %20, i64 -88
  store ptr %21, ptr %4, align 8
  %22 = load ptr, ptr %2, align 8
  %23 = load ptr, ptr %4, align 8
  %24 = getelementptr inbounds %struct.uv_write_s, ptr %23, i32 0, i32 8
  %25 = load ptr, ptr %24, align 8
  %26 = load ptr, ptr %4, align 8
  %27 = getelementptr inbounds %struct.uv_write_s, ptr %26, i32 0, i32 7
  %28 = load i32, ptr %27, align 8
  %29 = zext i32 %28 to i64
  %30 = getelementptr inbounds %struct.uv_buf_t, ptr %25, i64 %29
  %31 = load ptr, ptr %4, align 8
  %32 = getelementptr inbounds %struct.uv_write_s, ptr %31, i32 0, i32 9
  %33 = load i32, ptr %32, align 8
  %34 = load ptr, ptr %4, align 8
  %35 = getelementptr inbounds %struct.uv_write_s, ptr %34, i32 0, i32 7
  %36 = load i32, ptr %35, align 8
  %37 = sub i32 %33, %36
  %38 = load ptr, ptr %4, align 8
  %39 = getelementptr inbounds %struct.uv_write_s, ptr %38, i32 0, i32 4
  %40 = load ptr, ptr %39, align 8
  %41 = call i32 @uv__try_write(ptr noundef %22, ptr noundef %30, i32 noundef %37, ptr noundef %40)
  %42 = sext i32 %41 to i64
  store i64 %42, ptr %5, align 8
  %43 = load i64, ptr %5, align 8
  %44 = icmp sge i64 %43, 0
  br i1 %44, label %45, label %56

45:                                               ; preds = %15
  %46 = load ptr, ptr %4, align 8
  %47 = getelementptr inbounds %struct.uv_write_s, ptr %46, i32 0, i32 4
  store ptr null, ptr %47, align 8
  %48 = load ptr, ptr %2, align 8
  %49 = load ptr, ptr %4, align 8
  %50 = load i64, ptr %5, align 8
  %51 = call i32 @uv__write_req_update(ptr noundef %48, ptr noundef %49, i64 noundef %50)
  %52 = icmp ne i32 %51, 0
  br i1 %52, label %53, label %55

53:                                               ; preds = %45
  %54 = load ptr, ptr %4, align 8
  call void @uv__write_req_finish(ptr noundef %54)
  br label %87

55:                                               ; preds = %45
  br label %61

56:                                               ; preds = %15
  %57 = load i64, ptr %5, align 8
  %58 = icmp ne i64 %57, -11
  br i1 %58, label %59, label %60

59:                                               ; preds = %56
  br label %75

60:                                               ; preds = %56
  br label %61

61:                                               ; preds = %60, %55
  %62 = load ptr, ptr %2, align 8
  %63 = getelementptr inbounds %struct.uv_stream_s, ptr %62, i32 0, i32 7
  %64 = load i32, ptr %63, align 8
  %65 = and i32 %64, 1048576
  %66 = icmp ne i32 %65, 0
  br i1 %66, label %67, label %68

67:                                               ; preds = %61
  br label %6

68:                                               ; preds = %61
  %69 = load ptr, ptr %2, align 8
  %70 = getelementptr inbounds %struct.uv_stream_s, ptr %69, i32 0, i32 1
  %71 = load ptr, ptr %70, align 8
  %72 = load ptr, ptr %2, align 8
  %73 = getelementptr inbounds %struct.uv_stream_s, ptr %72, i32 0, i32 13
  call void @uv__io_start(ptr noundef %71, ptr noundef %73, i32 noundef 4)
  %74 = load ptr, ptr %2, align 8
  call void @uv__stream_osx_interrupt_select(ptr noundef %74)
  br label %87

75:                                               ; preds = %59
  %76 = load i64, ptr %5, align 8
  %77 = trunc i64 %76 to i32
  %78 = load ptr, ptr %4, align 8
  %79 = getelementptr inbounds %struct.uv_write_s, ptr %78, i32 0, i32 10
  store i32 %77, ptr %79, align 4
  %80 = load ptr, ptr %4, align 8
  call void @uv__write_req_finish(ptr noundef %80)
  %81 = load ptr, ptr %2, align 8
  %82 = getelementptr inbounds %struct.uv_stream_s, ptr %81, i32 0, i32 1
  %83 = load ptr, ptr %82, align 8
  %84 = load ptr, ptr %2, align 8
  %85 = getelementptr inbounds %struct.uv_stream_s, ptr %84, i32 0, i32 13
  call void @uv__io_stop(ptr noundef %83, ptr noundef %85, i32 noundef 4)
  %86 = load ptr, ptr %2, align 8
  call void @uv__stream_osx_interrupt_select(ptr noundef %86)
  br label %87

87:                                               ; preds = %75, %68, %53, %14
  ret void
}