; Function Attrs: nounwind uwtable
define internal fastcc void @uv__write(ptr noundef %0) unnamed_addr #0 {
  %2 = getelementptr inbounds nuw i8, ptr %0, i64 192
  %3 = getelementptr inbounds nuw i8, ptr %0, i64 96
  %4 = getelementptr inbounds nuw i8, ptr %0, i64 88
  br label %5

5:                                                ; preds = %70, %1
  %6 = load ptr, ptr %2, align 8
  %7 = icmp eq ptr %2, %6
  br i1 %7, label %.loopexit, label %8

8:                                                ; preds = %5
  %9 = getelementptr inbounds nuw i8, ptr %6, i64 24
  %10 = load ptr, ptr %9, align 8
  %11 = getelementptr inbounds nuw i8, ptr %6, i64 16
  %12 = load i32, ptr %11, align 8
  %13 = zext i32 %12 to i64
  %14 = getelementptr inbounds nuw %struct.uv_buf_t, ptr %10, i64 %13
  %15 = getelementptr inbounds nuw i8, ptr %6, i64 32
  %16 = load i32, ptr %15, align 8
  %17 = sub i32 %16, %12
  %18 = getelementptr inbounds i8, ptr %6, i64 -16
  %19 = load ptr, ptr %18, align 8
  %20 = tail call fastcc i32 @uv__try_write(ptr noundef nonnull %0, ptr noundef %14, i32 noundef %17, ptr noundef %19)
  %21 = icmp sgt i32 %20, -1
  br i1 %21, label %22, label %69

22:                                               ; preds = %8
  %23 = zext nneg i32 %20 to i64
  store ptr null, ptr %18, align 8
  %24 = load i64, ptr %3, align 8
  %25 = sub i64 %24, %23
  store i64 %25, ptr %3, align 8
  %26 = load ptr, ptr %9, align 8
  %27 = load i32, ptr %11, align 8
  %28 = zext i32 %27 to i64
  %29 = getelementptr inbounds nuw %struct.uv_buf_t, ptr %26, i64 %28
  br label %30

30:                                               ; preds = %30, %22
  %.021.i = phi ptr [ %29, %22 ], [ %38, %30 ]
  %.0.i = phi i64 [ %23, %22 ], [ %39, %30 ]
  %31 = getelementptr inbounds nuw i8, ptr %.021.i, i64 8
  %32 = load i64, ptr %31, align 8
  %.0..i = tail call i64 @llvm.umin.i64(i64 %.0.i, i64 %32)
  %33 = load ptr, ptr %.021.i, align 8
  %34 = getelementptr inbounds i8, ptr %33, i64 %.0..i
  store ptr %34, ptr %.021.i, align 8
  %35 = sub i64 %32, %.0..i
  store i64 %35, ptr %31, align 8
  %36 = icmp ule i64 %32, %.0.i
  %37 = zext i1 %36 to i64
  %38 = getelementptr inbounds nuw %struct.uv_buf_t, ptr %.021.i, i64 %37
  %39 = sub i64 %.0.i, %.0..i
  %.not.i = icmp eq i64 %39, 0
  br i1 %.not.i, label %uv__write_req_update.exit, label %30, !llvm.loop !17

uv__write_req_update.exit:                        ; preds = %30
  %40 = load ptr, ptr %9, align 8
  %41 = ptrtoint ptr %38 to i64
  %42 = ptrtoint ptr %40 to i64
  %43 = sub i64 %41, %42
  %44 = lshr exact i64 %43, 4
  %45 = trunc i64 %44 to i32
  store i32 %45, ptr %11, align 8
  %46 = load i32, ptr %15, align 8
  %.not32 = icmp eq i32 %46, %45
  br i1 %.not32, label %47, label %70

47:                                               ; preds = %uv__write_req_update.exit
  %48 = getelementptr inbounds i8, ptr %6, i64 -8
  %49 = load ptr, ptr %48, align 8
  %50 = load ptr, ptr %6, align 8
  %51 = getelementptr inbounds nuw i8, ptr %6, i64 8
  %52 = load ptr, ptr %51, align 8
  store ptr %50, ptr %52, align 8
  %53 = load ptr, ptr %51, align 8
  %54 = getelementptr inbounds nuw i8, ptr %50, i64 8
  store ptr %53, ptr %54, align 8
  %55 = getelementptr inbounds nuw i8, ptr %6, i64 36
  %56 = load i32, ptr %55, align 4
  %57 = icmp eq i32 %56, 0
  br i1 %57, label %58, label %uv__write_req_finish.exit

58:                                               ; preds = %47
  %59 = load ptr, ptr %9, align 8
  %60 = getelementptr inbounds nuw i8, ptr %6, i64 40
  %.not.i29 = icmp eq ptr %59, %60
  br i1 %.not.i29, label %62, label %61

61:                                               ; preds = %58
  tail call void @uv__free(ptr noundef %59) #12
  br label %62

62:                                               ; preds = %61, %58
  store ptr null, ptr %9, align 8
  br label %uv__write_req_finish.exit

uv__write_req_finish.exit:                        ; preds = %47, %62
  %63 = getelementptr inbounds nuw i8, ptr %49, i64 208
  store ptr %63, ptr %6, align 8
  %64 = getelementptr inbounds nuw i8, ptr %49, i64 216
  %65 = load ptr, ptr %64, align 8
  store ptr %65, ptr %51, align 8
  store ptr %6, ptr %65, align 8
  store ptr %6, ptr %64, align 8
  %66 = getelementptr inbounds nuw i8, ptr %49, i64 8
  %67 = load ptr, ptr %66, align 8
  %68 = getelementptr inbounds nuw i8, ptr %49, i64 136
  tail call void @uv__io_feed(ptr noundef %67, ptr noundef nonnull %68) #12
  br label %.loopexit

69:                                               ; preds = %8
  %.not = icmp eq i32 %20, -11
  br i1 %.not, label %70, label %77

70:                                               ; preds = %69, %uv__write_req_update.exit
  %71 = load i32, ptr %4, align 8
  %72 = and i32 %71, 1048576
  %.not28 = icmp eq i32 %72, 0
  br i1 %.not28, label %73, label %5

73:                                               ; preds = %70
  %74 = getelementptr inbounds nuw i8, ptr %0, i64 8
  %75 = load ptr, ptr %74, align 8
  %76 = getelementptr inbounds nuw i8, ptr %0, i64 136
  tail call void @uv__io_start(ptr noundef %75, ptr noundef nonnull %76, i32 noundef 4) #12
  br label %.loopexit

77:                                               ; preds = %69
  %78 = getelementptr inbounds nuw i8, ptr %6, i64 36
  store i32 %20, ptr %78, align 4
  %79 = getelementptr inbounds i8, ptr %6, i64 -8
  %80 = load ptr, ptr %79, align 8
  %81 = load ptr, ptr %6, align 8
  %82 = getelementptr inbounds nuw i8, ptr %6, i64 8
  %83 = load ptr, ptr %82, align 8
  store ptr %81, ptr %83, align 8
  %84 = load ptr, ptr %82, align 8
  %85 = getelementptr inbounds nuw i8, ptr %81, i64 8
  store ptr %84, ptr %85, align 8
  %86 = load i32, ptr %78, align 4
  %87 = icmp eq i32 %86, 0
  br i1 %87, label %88, label %uv__write_req_finish.exit31

88:                                               ; preds = %77
  %89 = load ptr, ptr %9, align 8
  %90 = getelementptr inbounds nuw i8, ptr %6, i64 40
  %.not.i30 = icmp eq ptr %89, %90
  br i1 %.not.i30, label %92, label %91

91:                                               ; preds = %88
  tail call void @uv__free(ptr noundef %89) #12
  br label %92

92:                                               ; preds = %91, %88
  store ptr null, ptr %9, align 8
  br label %uv__write_req_finish.exit31

uv__write_req_finish.exit31:                      ; preds = %77, %92
  %93 = getelementptr inbounds nuw i8, ptr %80, i64 208
  store ptr %93, ptr %6, align 8
  %94 = getelementptr inbounds nuw i8, ptr %80, i64 216
  %95 = load ptr, ptr %94, align 8
  store ptr %95, ptr %82, align 8
  store ptr %6, ptr %95, align 8
  store ptr %6, ptr %94, align 8
  %96 = getelementptr inbounds nuw i8, ptr %80, i64 8
  %97 = load ptr, ptr %96, align 8
  %98 = getelementptr inbounds nuw i8, ptr %80, i64 136
  tail call void @uv__io_feed(ptr noundef %97, ptr noundef nonnull %98) #12
  %99 = getelementptr inbounds nuw i8, ptr %0, i64 8
  %100 = load ptr, ptr %99, align 8
  %101 = getelementptr inbounds nuw i8, ptr %0, i64 136
  tail call void @uv__io_stop(ptr noundef %100, ptr noundef nonnull %101, i32 noundef 4) #12
  br label %.loopexit

.loopexit:                                        ; preds = %5, %uv__write_req_finish.exit31, %73, %uv__write_req_finish.exit
  ret void
}